target datalayout = "e-m:e-p270:32:32-p271:32:32-p272:64:64-i64:64-i128:128-f80:128-n8:16:32:64-S128"
target triple = "x86_64-pc-linux-gnu"

%struct.DdManager = type { %struct.DdNode, ptr, ptr, ptr, ptr, ptr, ptr, ptr, i32, i32, double, double, double, i32, i32, i32, i32, i32, i32, ptr, ptr, %struct.DdSubtable, i32, i32, i32, i32, i32, i32, i32, double, i32, i32, i32, ptr, i64, double, i32, ptr, ptr, ptr, ptr, ptr, ptr, ptr, i32, ptr, ptr, ptr, ptr, ptr, ptr, i32, i32, i32, double, i32, i32, i32, i32, double, double, i32, i32, i32, i32, i32, i32, i32, i32, i32, ptr, ptr, i32, i32, i32, i32, i32, i32, ptr, ptr, ptr, ptr, ptr, ptr, ptr, ptr, i32, i64, i64, i64, i32, i64, i64, double, double, double, double, double, double, i32, ptr, ptr, i64 }
%struct.DdNode = type { i32, i32, ptr, %union.anon, i64 }
%union.anon = type { %struct.DdChildren }
%struct.DdChildren = type { ptr, ptr }
%struct.DdSubtable = type { ptr, i32, i32, i32, i32, i32, i32, i32, i32, i32, i32, i32 }

; Function Attrs: nounwind uwtable
define ptr @Cudd_addEvalConst(ptr noundef %0, ptr noundef %1, ptr noundef %2) #0 {
  %4 = alloca ptr, align 8
  %5 = alloca ptr, align 8
  %6 = alloca ptr, align 8
  %7 = alloca ptr, align 8
  %8 = alloca ptr, align 8
  %9 = alloca ptr, align 8
  %10 = alloca ptr, align 8
  %11 = alloca ptr, align 8
  %12 = alloca ptr, align 8
  %13 = alloca ptr, align 8
  %14 = alloca ptr, align 8
  %15 = alloca ptr, align 8
  %16 = alloca i32, align 4
  %17 = alloca i32, align 4
  %18 = alloca i32, align 4
  store ptr %0, ptr %5, align 8, !tbaa !3
  store ptr %1, ptr %6, align 8, !tbaa !8
  store ptr %2, ptr %7, align 8, !tbaa !8
  call void @llvm.lifetime.start.p0(i64 8, ptr %8) #3
  call void @llvm.lifetime.start.p0(i64 8, ptr %9) #3
  call void @llvm.lifetime.start.p0(i64 8, ptr %10) #3
  call void @llvm.lifetime.start.p0(i64 8, ptr %11) #3
  call void @llvm.lifetime.start.p0(i64 8, ptr %12) #3
  call void @llvm.lifetime.start.p0(i64 8, ptr %13) #3
  call void @llvm.lifetime.start.p0(i64 8, ptr %14) #3
  call void @llvm.lifetime.start.p0(i64 8, ptr %15) #3
  call void @llvm.lifetime.start.p0(i64 4, ptr %16) #3
  call void @llvm.lifetime.start.p0(i64 4, ptr %17) #3
  %19 = load ptr, ptr %6, align 8, !tbaa !8
  %20 = load ptr, ptr %5, align 8, !tbaa !3
  %21 = getelementptr inbounds nuw %struct.DdManager, ptr %20, i32 0, i32 1
  %22 = load ptr, ptr %21, align 8, !tbaa !30
  %23 = icmp eq ptr %19, %22
  br i1 %23, label %29, label %24

24:                                               ; preds = %3
  %25 = load ptr, ptr %7, align 8, !tbaa !8
  %26 = getelementptr inbounds nuw %struct.DdNode, ptr %25, i32 0, i32 0
  %27 = load i32, ptr %26, align 8, !tbaa !32
  %28 = icmp eq i32 %27, 2147483647
  br i1 %28, label %29, label %31

29:                                               ; preds = %24, %3
  %30 = load ptr, ptr %7, align 8, !tbaa !8
  store ptr %30, ptr %4, align 8
  store i32 1, ptr %18, align 4
  br label %182

31:                                               ; preds = %24
  %32 = load ptr, ptr %6, align 8, !tbaa !8
  %33 = load ptr, ptr %5, align 8, !tbaa !3
  %34 = getelementptr inbounds nuw %struct.DdManager, ptr %33, i32 0, i32 2
  %35 = load ptr, ptr %34, align 8, !tbaa !31
  store ptr %35, ptr %8, align 8, !tbaa !8
  %36 = icmp eq ptr %32, %35
  br i1 %36, label %37, label %41

37:                                               ; preds = %31
  %38 = load ptr, ptr %5, align 8, !tbaa !3
  %39 = getelementptr inbounds nuw %struct.DdManager, ptr %38, i32 0, i32 5
  %40 = load ptr, ptr %39, align 8, !tbaa !37
  store ptr %40, ptr %4, align 8
  store i32 1, ptr %18, align 4
  br label %182

41:                                               ; preds = %31
  %42 = load ptr, ptr %6, align 8, !tbaa !8
  %43 = getelementptr inbounds nuw %struct.DdNode, ptr %42, i32 0, i32 0
  %44 = load i32, ptr %43, align 8, !tbaa !32
  %45 = icmp eq i32 %44, 2147483647
  br i1 %45, label %46, label %50

46:                                               ; preds = %41
  %47 = load ptr, ptr %6, align 8, !tbaa !8
  %48 = getelementptr inbounds nuw %struct.DdNode, ptr %47, i32 0, i32 0
  %49 = load i32, ptr %48, align 8, !tbaa !32
  br label %60

50:                                               ; preds = %41
  %51 = load ptr, ptr %5, align 8, !tbaa !3
  %52 = getelementptr inbounds nuw %struct.DdManager, ptr %51, i32 0, i32 37
  %53 = load ptr, ptr %52, align 8, !tbaa !33
  %54 = load ptr, ptr %6, align 8, !tbaa !8
  %55 = getelementptr inbounds nuw %struct.DdNode, ptr %54, i32 0, i32 0
  %56 = load i32, ptr %55, align 8, !tbaa !32
  %57 = zext i32 %56 to i64
  %58 = getelementptr inbounds nuw i32, ptr %53, i64 %57
  %59 = load i32, ptr %58, align 4, !tbaa !29
  br label %60

60:                                               ; preds = %50, %46
  %61 = phi i32 [ %49, %46 ], [ %59, %50 ]
  store i32 %61, ptr %16, align 4, !tbaa !29
  %62 = load ptr, ptr %7, align 8, !tbaa !8
  %63 = getelementptr inbounds nuw %struct.DdNode, ptr %62, i32 0, i32 0
  %64 = load i32, ptr %63, align 8, !tbaa !32
  %65 = icmp eq i32 %64, 2147483647
  br i1 %65, label %66, label %70

66:                                               ; preds = %60
  %67 = load ptr, ptr %7, align 8, !tbaa !8
  %68 = getelementptr inbounds nuw %struct.DdNode, ptr %67, i32 0, i32 0
  %69 = load i32, ptr %68, align 8, !tbaa !32
  br label %80

70:                                               ; preds = %60
  %71 = load ptr, ptr %5, align 8, !tbaa !3
  %72 = getelementptr inbounds nuw %struct.DdManager, ptr %71, i32 0, i32 37
  %73 = load ptr, ptr %72, align 8, !tbaa !33
  %74 = load ptr, ptr %7, align 8, !tbaa !8
  %75 = getelementptr inbounds nuw %struct.DdNode, ptr %74, i32 0, i32 0
  %76 = load i32, ptr %75, align 8, !tbaa !32
  %77 = zext i32 %76 to i64
  %78 = getelementptr inbounds nuw i32, ptr %73, i64 %77
  %79 = load i32, ptr %78, align 4, !tbaa !29
  br label %80

80:                                               ; preds = %70, %66
  %81 = phi i32 [ %69, %66 ], [ %79, %70 ]
  store i32 %81, ptr %17, align 4, !tbaa !29
  %82 = load ptr, ptr %5, align 8, !tbaa !3
  %83 = load ptr, ptr %6, align 8, !tbaa !8
  %84 = load ptr, ptr %7, align 8, !tbaa !8
  %85 = load ptr, ptr %7, align 8, !tbaa !8
  %86 = call ptr @cuddConstantLookup(ptr noundef %82, i64 noundef 102, ptr noundef %83, ptr noundef %84, ptr noundef %85)
  store ptr %86, ptr %13, align 8, !tbaa !8
  %87 = load ptr, ptr %13, align 8, !tbaa !8
  %88 = icmp ne ptr %87, null
  br i1 %88, label %89, label %91

89:                                               ; preds = %80
  %90 = load ptr, ptr %13, align 8, !tbaa !8
  store ptr %90, ptr %4, align 8
  store i32 1, ptr %18, align 4
  br label %182

91:                                               ; preds = %80
  %92 = load i32, ptr %16, align 4, !tbaa !29
  %93 = load i32, ptr %17, align 4, !tbaa !29
  %94 = icmp ule i32 %92, %93
  br i1 %94, label %95, label %104

95:                                               ; preds = %91
  %96 = load ptr, ptr %6, align 8, !tbaa !8
  %97 = getelementptr inbounds nuw %struct.DdNode, ptr %96, i32 0, i32 3
  %98 = getelementptr inbounds nuw %struct.DdChildren, ptr %97, i32 0, i32 0
  %99 = load ptr, ptr %98, align 8, !tbaa !34
  store ptr %99, ptr %9, align 8, !tbaa !8
  %100 = load ptr, ptr %6, align 8, !tbaa !8
  %101 = getelementptr inbounds nuw %struct.DdNode, ptr %100, i32 0, i32 3
  %102 = getelementptr inbounds nuw %struct.DdChildren, ptr %101, i32 0, i32 1
  %103 = load ptr, ptr %102, align 8, !tbaa !34
  store ptr %103, ptr %10, align 8, !tbaa !8
  br label %106

104:                                              ; preds = %91
  %105 = load ptr, ptr %6, align 8, !tbaa !8
  store ptr %105, ptr %10, align 8, !tbaa !8
  store ptr %105, ptr %9, align 8, !tbaa !8
  br label %106

106:                                              ; preds = %104, %95
  %107 = load i32, ptr %17, align 4, !tbaa !29
  %108 = load i32, ptr %16, align 4, !tbaa !29
  %109 = icmp ule i32 %107, %108
  br i1 %109, label %110, label %119

110:                                              ; preds = %106
  %111 = load ptr, ptr %7, align 8, !tbaa !8
  %112 = getelementptr inbounds nuw %struct.DdNode, ptr %111, i32 0, i32 3
  %113 = getelementptr inbounds nuw %struct.DdChildren, ptr %112, i32 0, i32 0
  %114 = load ptr, ptr %113, align 8, !tbaa !34
  store ptr %114, ptr %11, align 8, !tbaa !8
  %115 = load ptr, ptr %7, align 8, !tbaa !8
  %116 = getelementptr inbounds nuw %struct.DdNode, ptr %115, i32 0, i32 3
  %117 = getelementptr inbounds nuw %struct.DdChildren, ptr %116, i32 0, i32 1
  %118 = load ptr, ptr %117, align 8, !tbaa !34
  store ptr %118, ptr %12, align 8, !tbaa !8
  br label %121

119:                                              ; preds = %106
  %120 = load ptr, ptr %7, align 8, !tbaa !8
  store ptr %120, ptr %12, align 8, !tbaa !8
  store ptr %120, ptr %11, align 8, !tbaa !8
  br label %121

121:                                              ; preds = %119, %110
  %122 = load ptr, ptr %9, align 8, !tbaa !8
  %123 = load ptr, ptr %8, align 8, !tbaa !8
  %124 = icmp ne ptr %122, %123
  br i1 %124, label %125, label %172

125:                                              ; preds = %121
  %126 = load ptr, ptr %5, align 8, !tbaa !3
  %127 = load ptr, ptr %9, align 8, !tbaa !8
  %128 = load ptr, ptr %11, align 8, !tbaa !8
  %129 = call ptr @Cudd_addEvalConst(ptr noundef %126, ptr noundef %127, ptr noundef %128)
  store ptr %129, ptr %14, align 8, !tbaa !8
  %130 = load ptr, ptr %14, align 8, !tbaa !8
  %131 = icmp eq ptr %130, inttoptr (i64 1 to ptr)
  br i1 %131, label %137, label %132

132:                                              ; preds = %125
  %133 = load ptr, ptr %14, align 8, !tbaa !8
  %134 = getelementptr inbounds nuw %struct.DdNode, ptr %133, i32 0, i32 0
  %135 = load i32, ptr %134, align 8, !tbaa !32
  %136 = icmp eq i32 %135, 2147483647
  br i1 %136, label %141, label %137

137:                                              ; preds = %132, %125
  %138 = load ptr, ptr %5, align 8, !tbaa !3
  %139 = load ptr, ptr %6, align 8, !tbaa !8
  %140 = load ptr, ptr %7, align 8, !tbaa !8
  call void @cuddCacheInsert2(ptr noundef %138, ptr noundef @Cudd_addEvalConst, ptr noundef %139, ptr noundef %140, ptr noundef inttoptr (i64 1 to ptr))
  store ptr inttoptr (i64 1 to ptr), ptr %4, align 8
  store i32 1, ptr %18, align 4
  br label %182

141:                                              ; preds = %132
  %142 = load ptr, ptr %10, align 8, !tbaa !8
  %143 = load ptr, ptr %8, align 8, !tbaa !8
  %144 = icmp ne ptr %142, %143
  br i1 %144, label %145, label %166

145:                                              ; preds = %141
  %146 = load ptr, ptr %5, align 8, !tbaa !3
  %147 = load ptr, ptr %10, align 8, !tbaa !8
  %148 = load ptr, ptr %12, align 8, !tbaa !8
  %149 = call ptr @Cudd_addEvalConst(ptr noundef %146, ptr noundef %147, ptr noundef %148)
  store ptr %149, ptr %15, align 8, !tbaa !8
  %150 = load ptr, ptr %15, align 8, !tbaa !8
  %151 = icmp eq ptr %150, inttoptr (i64 1 to ptr)
  br i1 %151, label %161, label %152

152:                                              ; preds = %145
  %153 = load ptr, ptr %15, align 8, !tbaa !8
  %154 = getelementptr inbounds nuw %struct.DdNode, ptr %153, i32 0, i32 0
  %155 = load i32, ptr %154, align 8, !tbaa !32
  %156 = icmp eq i32 %155, 2147483647
  br i1 %156, label %157, label %161

157:                                              ; preds = %152
  %158 = load ptr, ptr %14, align 8, !tbaa !8
  %159 = load ptr, ptr %15, align 8, !tbaa !8
  %160 = icmp ne ptr %158, %159
  br i1 %160, label %161, label %165

161:                                              ; preds = %157, %152, %145
  %162 = load ptr, ptr %5, align 8, !tbaa !3
  %163 = load ptr, ptr %6, align 8, !tbaa !8
  %164 = load ptr, ptr %7, align 8, !tbaa !8
  call void @cuddCacheInsert2(ptr noundef %162, ptr noundef @Cudd_addEvalConst, ptr noundef %163, ptr noundef %164, ptr noundef inttoptr (i64 1 to ptr))
  store ptr inttoptr (i64 1 to ptr), ptr %4, align 8
  store i32 1, ptr %18, align 4
  br label %182

165:                                              ; preds = %157
  br label %166

166:                                              ; preds = %165, %141
  %167 = load ptr, ptr %5, align 8, !tbaa !3
  %168 = load ptr, ptr %6, align 8, !tbaa !8
  %169 = load ptr, ptr %7, align 8, !tbaa !8
  %170 = load ptr, ptr %14, align 8, !tbaa !8
  call void @cuddCacheInsert2(ptr noundef %167, ptr noundef @Cudd_addEvalConst, ptr noundef %168, ptr noundef %169, ptr noundef %170)
  %171 = load ptr, ptr %14, align 8, !tbaa !8
  store ptr %171, ptr %4, align 8
  store i32 1, ptr %18, align 4
  br label %182

172:                                              ; preds = %121
  %173 = load ptr, ptr %5, align 8, !tbaa !3
  %174 = load ptr, ptr %10, align 8, !tbaa !8
  %175 = load ptr, ptr %12, align 8, !tbaa !8
  %176 = call ptr @Cudd_addEvalConst(ptr noundef %173, ptr noundef %174, ptr noundef %175)
  store ptr %176, ptr %15, align 8, !tbaa !8
  %177 = load ptr, ptr %5, align 8, !tbaa !3
  %178 = load ptr, ptr %6, align 8, !tbaa !8
  %179 = load ptr, ptr %7, align 8, !tbaa !8
  %180 = load ptr, ptr %15, align 8, !tbaa !8
  call void @cuddCacheInsert2(ptr noundef %177, ptr noundef @Cudd_addEvalConst, ptr noundef %178, ptr noundef %179, ptr noundef %180)
  %181 = load ptr, ptr %15, align 8, !tbaa !8
  store ptr %181, ptr %4, align 8
  store i32 1, ptr %18, align 4
  br label %182

182:                                              ; preds = %172, %166, %161, %137, %89, %37, %29
  call void @llvm.lifetime.end.p0(i64 4, ptr %17) #3
  call void @llvm.lifetime.end.p0(i64 4, ptr %16) #3
  call void @llvm.lifetime.end.p0(i64 8, ptr %15) #3
  call void @llvm.lifetime.end.p0(i64 8, ptr %14) #3
  call void @llvm.lifetime.end.p0(i64 8, ptr %13) #3
  call void @llvm.lifetime.end.p0(i64 8, ptr %12) #3
  call void @llvm.lifetime.end.p0(i64 8, ptr %11) #3
  call void @llvm.lifetime.end.p0(i64 8, ptr %10) #3
  call void @llvm.lifetime.end.p0(i64 8, ptr %9) #3
  call void @llvm.lifetime.end.p0(i64 8, ptr %8) #3
  %183 = load ptr, ptr %4, align 8
  ret ptr %183
}