; Function Attrs: nounwind uwtable
define ptr @Cudd_addEvalConst(ptr noundef %0, ptr noundef %1, ptr noundef %2) #0 {
  %4 = getelementptr inbounds nuw i8, ptr %0, i64 40
  %5 = load ptr, ptr %4, align 8, !tbaa !26
  %6 = icmp eq ptr %1, %5
  br i1 %6, label %common.ret83, label %7

7:                                                ; preds = %3
  %8 = load i32, ptr %2, align 8, !tbaa !28
  %9 = icmp eq i32 %8, 2147483647
  br i1 %9, label %common.ret83, label %10

10:                                               ; preds = %7
  %11 = getelementptr inbounds nuw i8, ptr %0, i64 48
  %12 = load ptr, ptr %11, align 8, !tbaa !27
  %13 = icmp eq ptr %1, %12
  br i1 %13, label %14, label %17

14:                                               ; preds = %10
  %15 = getelementptr inbounds nuw i8, ptr %0, i64 72
  %16 = load ptr, ptr %15, align 8, !tbaa !33
  br label %common.ret83

17:                                               ; preds = %10
  %18 = load i32, ptr %1, align 8, !tbaa !28
  %19 = icmp eq i32 %18, 2147483647
  %.phi.trans.insert = getelementptr inbounds nuw i8, ptr %0, i64 312
  %.pre = load ptr, ptr %.phi.trans.insert, align 8, !tbaa !29
  br i1 %19, label %._crit_edge, label %20

20:                                               ; preds = %17
  %21 = zext i32 %18 to i64
  %22 = getelementptr inbounds nuw i32, ptr %.pre, i64 %21
  %23 = load i32, ptr %22, align 4, !tbaa !30
  br label %._crit_edge

._crit_edge:                                      ; preds = %17, %20
  %24 = phi i32 [ %23, %20 ], [ 2147483647, %17 ]
  %25 = zext i32 %8 to i64
  %26 = getelementptr inbounds nuw i32, ptr %.pre, i64 %25
  %27 = load i32, ptr %26, align 4, !tbaa !30
  %28 = tail call ptr @cuddConstantLookup(ptr noundef nonnull %0, i64 noundef 102, ptr noundef nonnull %1, ptr noundef nonnull %2, ptr noundef nonnull %2) #3
  %.not = icmp eq ptr %28, null
  br i1 %.not, label %29, label %common.ret83

29:                                               ; preds = %._crit_edge
  %.not78 = icmp ugt i32 %24, %27
  br i1 %.not78, label %35, label %30

30:                                               ; preds = %29
  %31 = getelementptr inbounds nuw i8, ptr %1, i64 16
  %32 = load ptr, ptr %31, align 8, !tbaa !31
  %33 = getelementptr inbounds nuw i8, ptr %1, i64 24
  %34 = load ptr, ptr %33, align 8, !tbaa !31
  br label %35

35:                                               ; preds = %29, %30
  %.067 = phi ptr [ %34, %30 ], [ %1, %29 ]
  %.066 = phi ptr [ %32, %30 ], [ %1, %29 ]
  %.not79 = icmp ugt i32 %27, %24
  br i1 %.not79, label %41, label %36

36:                                               ; preds = %35
  %37 = getelementptr inbounds nuw i8, ptr %2, i64 16
  %38 = load ptr, ptr %37, align 8, !tbaa !31
  %39 = getelementptr inbounds nuw i8, ptr %2, i64 24
  %40 = load ptr, ptr %39, align 8, !tbaa !31
  br label %41

41:                                               ; preds = %35, %36
  %.069 = phi ptr [ %40, %36 ], [ %2, %35 ]
  %.068 = phi ptr [ %38, %36 ], [ %2, %35 ]
  %.not80 = icmp eq ptr %.066, %12
  br i1 %.not80, label %58, label %42

42:                                               ; preds = %41
  %43 = tail call ptr @Cudd_addEvalConst(ptr noundef nonnull %0, ptr noundef %.066, ptr noundef %.068)
  %44 = icmp eq ptr %43, inttoptr (i64 1 to ptr)
  br i1 %44, label %48, label %45

45:                                               ; preds = %42
  %46 = load i32, ptr %43, align 8, !tbaa !28
  %47 = icmp eq i32 %46, 2147483647
  br i1 %47, label %49, label %48

48:                                               ; preds = %45, %42
  tail call void @cuddCacheInsert2(ptr noundef nonnull %0, ptr noundef nonnull @Cudd_addEvalConst, ptr noundef nonnull %1, ptr noundef nonnull %2, ptr noundef nonnull inttoptr (i64 1 to ptr)) #3
  br label %common.ret83

49:                                               ; preds = %45
  %.not81 = icmp eq ptr %.067, %12
  br i1 %.not81, label %57, label %50

50:                                               ; preds = %49
  %51 = tail call ptr @Cudd_addEvalConst(ptr noundef nonnull %0, ptr noundef %.067, ptr noundef %.069)
  %52 = icmp eq ptr %51, inttoptr (i64 1 to ptr)
  br i1 %52, label %56, label %53

53:                                               ; preds = %50
  %54 = load i32, ptr %51, align 8, !tbaa !28
  %55 = icmp eq i32 %54, 2147483647
  %.not82 = icmp eq ptr %43, %51
  %or.cond = and i1 %.not82, %55
  br i1 %or.cond, label %57, label %56

56:                                               ; preds = %53, %50
  tail call void @cuddCacheInsert2(ptr noundef nonnull %0, ptr noundef nonnull @Cudd_addEvalConst, ptr noundef nonnull %1, ptr noundef nonnull %2, ptr noundef nonnull inttoptr (i64 1 to ptr)) #3
  br label %common.ret83

57:                                               ; preds = %53, %49
  tail call void @cuddCacheInsert2(ptr noundef nonnull %0, ptr noundef nonnull @Cudd_addEvalConst, ptr noundef nonnull %1, ptr noundef nonnull %2, ptr noundef nonnull %43) #3
  br label %common.ret83

common.ret83:                                     ; preds = %._crit_edge, %3, %7, %57, %56, %48, %14, %58
  %common.ret83.op = phi ptr [ %59, %58 ], [ %16, %14 ], [ inttoptr (i64 1 to ptr), %48 ], [ inttoptr (i64 1 to ptr), %56 ], [ %43, %57 ], [ %2, %7 ], [ %2, %3 ], [ %28, %._crit_edge ]
  ret ptr %common.ret83.op

58:                                               ; preds = %41
  %59 = tail call ptr @Cudd_addEvalConst(ptr noundef nonnull %0, ptr noundef %.067, ptr noundef %.069)
  tail call void @cuddCacheInsert2(ptr noundef nonnull %0, ptr noundef nonnull @Cudd_addEvalConst, ptr noundef nonnull %1, ptr noundef nonnull %2, ptr noundef %59) #3
  br label %common.ret83
}